target datalayout = "e-m:e-p270:32:32-p271:32:32-p272:64:64-i64:64-i128:128-f80:128-n8:16:32:64-S128"
target triple = "x86_64-pc-linux-gnu"

%struct.ssl_connection_st = type { %struct.ssl_st, ptr, i32, ptr, ptr, ptr, i32, ptr, i32, i32, i32, i32, %struct.OSSL_TIME, %struct.OSSL_TIME, %struct.ossl_statem_st, i32, ptr, ptr, i64, i64, i64, %struct.ossl_quic_tls_callbacks_st, ptr, ptr, %struct.anon, ptr, ptr, ptr, i32, ptr, %struct.ssl_dane_st, ptr, ptr, ptr, ptr, i32, [64 x i8], [64 x i8], [64 x i8], [64 x i8], [64 x i8], [64 x i8], [64 x i8], [64 x i8], [64 x i8], [64 x i8], [64 x i8], [64 x i8], ptr, [64 x i8], i64, i32, i64, [32 x i8], ptr, ptr, ptr, i64, ptr, [32 x i8], i64, i32, ptr, ptr, i32, i32, ptr, ptr, ptr, ptr, ptr, i64, ptr, ptr, i64, i32, i32, i32, i64, i32, i32, i64, i64, i64, %struct.anon.1, ptr, i32, ptr, ptr, ptr, i32, ptr, ptr, ptr, i32, i32, i32, i32, ptr, i64, i32, ptr, %struct.srp_ctx_st, ptr, %struct.record_layer_st, ptr, ptr, ptr, ptr, i64, i32, i32, i32, i64, i64, i64, ptr, ptr, ptr, ptr, ptr, i64, ptr, i64, ptr, i64 }
%struct.ssl_st = type { i32, ptr, ptr, ptr, %struct.CRYPTO_REF_COUNT, ptr, %struct.crypto_ex_data_st }
%struct.CRYPTO_REF_COUNT = type { i32 }
%struct.crypto_ex_data_st = type { ptr, ptr }
%struct.OSSL_TIME = type { i64 }
%struct.ossl_statem_st = type { i32, i32, i32, i32, i32, i32, i32, i32, i32, i32, i32, i32, i32, ptr, ptr, ptr, i8 }
%struct.ossl_quic_tls_callbacks_st = type { ptr, ptr, ptr, ptr, ptr, ptr }
%struct.anon = type { i64, [32 x i8], [32 x i8], ptr, ptr, i32, i32, i32, i32, [2 x i8], i32, i32, i32, i32, %struct.anon.0, [64 x i8], i64, [64 x i8], i64, i32, i32, ptr, i64, ptr, i64, i32, i8, i8, i16, ptr, i16 }
%struct.anon.0 = type { [128 x i8], i64, [128 x i8], i64, i64, i32, ptr, ptr, [4 x ptr], [4 x i16], i64, i32, ptr, i64, ptr, i64, ptr, ptr, ptr, i32, i64, ptr, i32, ptr, i64, ptr, i64, ptr, i64, ptr, ptr, ptr, ptr, i64, i64, ptr, ptr, i32, i32, i32, i32 }
%struct.ssl_dane_st = type { ptr, ptr, ptr, ptr, ptr, i32, i32, i32, i64 }
%struct.anon.1 = type { [29 x i8], ptr, ptr, ptr, i32, ptr, i16, i32, %struct.anon.2, i32, i32, i64, ptr, i64, ptr, i64, ptr, i64, ptr, i64, ptr, i64, ptr, ptr, ptr, ptr, ptr, ptr, ptr, i64, ptr, i64, i32, i32, i32, i32, ptr, i64, i32, i8, i32, [4 x i32], i32, i8, i8, i8, i8 }
%struct.anon.2 = type { ptr, ptr, ptr, i64 }
%struct.srp_ctx_st = type { ptr, ptr, ptr, ptr, ptr, ptr, ptr, ptr, ptr, ptr, ptr, ptr, ptr, ptr, i32, i64 }
%struct.record_layer_st = type { ptr, ptr, ptr, ptr, ptr, ptr, ptr, ptr, i64, i32, i64, [4 x i8], i64, i64, i8, ptr, i32, ptr, ptr, ptr, i64, i64, i64, i64, [32 x %struct.tls_record_st] }
%struct.tls_record_st = type { ptr, i32, i8, ptr, ptr, i64, i64, i16, [8 x i8] }
%struct.ssl_method_st = type { i32, i32, i64, ptr, ptr, ptr, ptr, ptr, ptr, ptr, ptr, ptr, ptr, ptr, ptr, ptr, ptr, ptr, ptr, ptr, ptr, ptr, ptr, ptr, ptr, ptr, ptr, ptr, ptr, ptr, ptr, ptr }
%struct.ssl3_enc_method = type { ptr, ptr, ptr, ptr, ptr, i64, ptr, i64, ptr, ptr, i32, ptr, ptr, ptr }
%struct.ssl_session_st = type { i32, i64, [64 x i8], [512 x i8], i64, [32 x i8], i64, [32 x i8], ptr, ptr, i32, ptr, ptr, ptr, i64, %struct.OSSL_TIME, %struct.OSSL_TIME, %struct.OSSL_TIME, i32, ptr, i64, i32, %struct.crypto_ex_data_st, %struct.anon.3, ptr, ptr, i64, i32, ptr, ptr, ptr, %struct.CRYPTO_REF_COUNT }
%struct.anon.3 = type { ptr, ptr, i64, i64, i32, i32, ptr, i64, i8 }
%struct.ssl_cipher_st = type { i32, ptr, ptr, i32, i32, i32, i32, i32, i32, i32, i32, i32, i32, i32, i32, i32 }

@.str = private unnamed_addr constant [36 x i8] c"../openssl/ssl/statem/statem_clnt.c\00", align 1
@__func__.set_client_ciphersuite = private unnamed_addr constant [23 x i8] c"set_client_ciphersuite\00", align 1

; Function Attrs: inlinehint nounwind uwtable
define internal ptr @ossl_check_SSL_CIPHER_type(ptr noundef %0) #2 {
  %2 = alloca ptr, align 8
  store ptr %0, ptr %2, align 8, !tbaa !183
  %3 = load ptr, ptr %2, align 8, !tbaa !183
  ret ptr %3
}

; Function Attrs: inlinehint nounwind uwtable
define internal ptr @ossl_check_SSL_CIPHER_sk_type(ptr noundef %0) #2 {
  %2 = alloca ptr, align 8
  store ptr %0, ptr %2, align 8, !tbaa !223
  %3 = load ptr, ptr %2, align 8, !tbaa !223
  ret ptr %3
}

; Function Attrs: nounwind uwtable
define internal i32 @set_client_ciphersuite(ptr noundef %0, ptr noundef %1) #0 {
  %3 = alloca i32, align 4
  %4 = alloca ptr, align 8
  %5 = alloca ptr, align 8
  %6 = alloca ptr, align 8
  %7 = alloca ptr, align 8
  %8 = alloca i32, align 4
  %9 = alloca ptr, align 8
  %10 = alloca i32, align 4
  %11 = alloca ptr, align 8
  store ptr %0, ptr %4, align 8, !tbaa !3
  store ptr %1, ptr %5, align 8, !tbaa !122
  call void @llvm.lifetime.start.p0(i64 8, ptr %6) #8
  call void @llvm.lifetime.start.p0(i64 8, ptr %7) #8
  call void @llvm.lifetime.start.p0(i64 4, ptr %8) #8
  call void @llvm.lifetime.start.p0(i64 8, ptr %9) #8
  %12 = load ptr, ptr %4, align 8, !tbaa !3
  %13 = getelementptr inbounds nuw %struct.ssl_connection_st, ptr %12, i32 0, i32 0
  %14 = getelementptr inbounds nuw %struct.ssl_st, ptr %13, i32 0, i32 1
  %15 = load ptr, ptr %14, align 8, !tbaa !130
  store ptr %15, ptr %9, align 8, !tbaa !131
  %16 = load ptr, ptr %4, align 8, !tbaa !3
  %17 = load ptr, ptr %5, align 8, !tbaa !122
  %18 = call ptr @ssl_get_cipher_by_char(ptr noundef %16, ptr noundef %17, i32 noundef 0)
  store ptr %18, ptr %7, align 8, !tbaa !183
  %19 = load ptr, ptr %7, align 8, !tbaa !183
  %20 = icmp eq ptr %19, null
  br i1 %20, label %21, label %23

21:                                               ; preds = %2
  call void @ERR_new()
  call void @ERR_set_debug(ptr noundef @.str, i32 noundef 1390, ptr noundef @__func__.set_client_ciphersuite)
  %22 = load ptr, ptr %4, align 8, !tbaa !3
  call void (ptr, i32, i32, ptr, ...) @ossl_statem_fatal(ptr noundef %22, i32 noundef 47, i32 noundef 248, ptr noundef null)
  store i32 0, ptr %3, align 4
  store i32 1, ptr %10, align 4
  br label %205

23:                                               ; preds = %2
  %24 = load ptr, ptr %4, align 8, !tbaa !3
  %25 = load ptr, ptr %7, align 8, !tbaa !183
  %26 = call i32 @ssl_cipher_disabled(ptr noundef %24, ptr noundef %25, i32 noundef 65539, i32 noundef 1)
  %27 = icmp ne i32 %26, 0
  br i1 %27, label %28, label %30

28:                                               ; preds = %23
  call void @ERR_new()
  call void @ERR_set_debug(ptr noundef @.str, i32 noundef 1398, ptr noundef @__func__.set_client_ciphersuite)
  %29 = load ptr, ptr %4, align 8, !tbaa !3
  call void (ptr, i32, i32, ptr, ...) @ossl_statem_fatal(ptr noundef %29, i32 noundef 47, i32 noundef 261, ptr noundef null)
  store i32 0, ptr %3, align 4
  store i32 1, ptr %10, align 4
  br label %205

30:                                               ; preds = %23
  %31 = load ptr, ptr %4, align 8, !tbaa !3
  %32 = call ptr @ssl_get_ciphers_by_id(ptr noundef %31)
  store ptr %32, ptr %6, align 8, !tbaa !223
  %33 = load ptr, ptr %6, align 8, !tbaa !223
  %34 = call ptr @ossl_check_SSL_CIPHER_sk_type(ptr noundef %33)
  %35 = load ptr, ptr %7, align 8, !tbaa !183
  %36 = call ptr @ossl_check_SSL_CIPHER_type(ptr noundef %35)
  %37 = call i32 @OPENSSL_sk_find(ptr noundef %34, ptr noundef %36)
  store i32 %37, ptr %8, align 4, !tbaa !8
  %38 = load i32, ptr %8, align 4, !tbaa !8
  %39 = icmp slt i32 %38, 0
  br i1 %39, label %40, label %42

40:                                               ; preds = %30
  call void @ERR_new()
  call void @ERR_set_debug(ptr noundef @.str, i32 noundef 1406, ptr noundef @__func__.set_client_ciphersuite)
  %41 = load ptr, ptr %4, align 8, !tbaa !3
  call void (ptr, i32, i32, ptr, ...) @ossl_statem_fatal(ptr noundef %41, i32 noundef 47, i32 noundef 261, ptr noundef null)
  store i32 0, ptr %3, align 4
  store i32 1, ptr %10, align 4
  br label %205

42:                                               ; preds = %30
  %43 = load ptr, ptr %4, align 8, !tbaa !3
  %44 = getelementptr inbounds nuw %struct.ssl_connection_st, ptr %43, i32 0, i32 0
  %45 = getelementptr inbounds nuw %struct.ssl_st, ptr %44, i32 0, i32 3
  %46 = load ptr, ptr %45, align 8, !tbaa !12
  %47 = getelementptr inbounds nuw %struct.ssl_method_st, ptr %46, i32 0, i32 28
  %48 = load ptr, ptr %47, align 8, !tbaa !73
  %49 = getelementptr inbounds nuw %struct.ssl3_enc_method, ptr %48, i32 0, i32 10
  %50 = load i32, ptr %49, align 8, !tbaa !76
  %51 = and i32 %50, 8
  %52 = icmp ne i32 %51, 0
  br i1 %52, label %90, label %53

53:                                               ; preds = %42
  %54 = load ptr, ptr %4, align 8, !tbaa !3
  %55 = getelementptr inbounds nuw %struct.ssl_connection_st, ptr %54, i32 0, i32 0
  %56 = getelementptr inbounds nuw %struct.ssl_st, ptr %55, i32 0, i32 3
  %57 = load ptr, ptr %56, align 8, !tbaa !12
  %58 = getelementptr inbounds nuw %struct.ssl_method_st, ptr %57, i32 0, i32 0
  %59 = load i32, ptr %58, align 8, !tbaa !78
  %60 = icmp sge i32 %59, 772
  br i1 %60, label %61, label %90

61:                                               ; preds = %53
  %62 = load ptr, ptr %4, align 8, !tbaa !3
  %63 = getelementptr inbounds nuw %struct.ssl_connection_st, ptr %62, i32 0, i32 0
  %64 = getelementptr inbounds nuw %struct.ssl_st, ptr %63, i32 0, i32 3
  %65 = load ptr, ptr %64, align 8, !tbaa !12
  %66 = getelementptr inbounds nuw %struct.ssl_method_st, ptr %65, i32 0, i32 0
  %67 = load i32, ptr %66, align 8, !tbaa !78
  %68 = icmp ne i32 %67, 65536
  br i1 %68, label %69, label %90

69:                                               ; preds = %61
  %70 = load ptr, ptr %4, align 8, !tbaa !3
  %71 = getelementptr inbounds nuw %struct.ssl_connection_st, ptr %70, i32 0, i32 24
  %72 = getelementptr inbounds nuw %struct.anon, ptr %71, i32 0, i32 14
  %73 = getelementptr inbounds nuw %struct.anon.0, ptr %72, i32 0, i32 6
  %74 = load ptr, ptr %73, align 8, !tbaa !88
  %75 = icmp ne ptr %74, null
  br i1 %75, label %76, label %90

76:                                               ; preds = %69
  %77 = load ptr, ptr %4, align 8, !tbaa !3
  %78 = getelementptr inbounds nuw %struct.ssl_connection_st, ptr %77, i32 0, i32 24
  %79 = getelementptr inbounds nuw %struct.anon, ptr %78, i32 0, i32 14
  %80 = getelementptr inbounds nuw %struct.anon.0, ptr %79, i32 0, i32 6
  %81 = load ptr, ptr %80, align 8, !tbaa !88
  %82 = getelementptr inbounds nuw %struct.ssl_cipher_st, ptr %81, i32 0, i32 3
  %83 = load i32, ptr %82, align 8, !tbaa !238
  %84 = load ptr, ptr %7, align 8, !tbaa !183
  %85 = getelementptr inbounds nuw %struct.ssl_cipher_st, ptr %84, i32 0, i32 3
  %86 = load i32, ptr %85, align 8, !tbaa !238
  %87 = icmp ne i32 %83, %86
  br i1 %87, label %88, label %90

88:                                               ; preds = %76
  call void @ERR_new()
  call void @ERR_set_debug(ptr noundef @.str, i32 noundef 1413, ptr noundef @__func__.set_client_ciphersuite)
  %89 = load ptr, ptr %4, align 8, !tbaa !3
  call void (ptr, i32, i32, ptr, ...) @ossl_statem_fatal(ptr noundef %89, i32 noundef 47, i32 noundef 261, ptr noundef null)
  store i32 0, ptr %3, align 4
  store i32 1, ptr %10, align 4
  br label %205

90:                                               ; preds = %76, %69, %61, %53, %42
  %91 = load ptr, ptr %4, align 8, !tbaa !3
  %92 = getelementptr inbounds nuw %struct.ssl_connection_st, ptr %91, i32 0, i32 54
  %93 = load ptr, ptr %92, align 8, !tbaa !84
  %94 = getelementptr inbounds nuw %struct.ssl_session_st, ptr %93, i32 0, i32 19
  %95 = load ptr, ptr %94, align 8, !tbaa !113
  %96 = icmp ne ptr %95, null
  br i1 %96, label %97, label %110

97:                                               ; preds = %90
  %98 = load ptr, ptr %4, align 8, !tbaa !3
  %99 = getelementptr inbounds nuw %struct.ssl_connection_st, ptr %98, i32 0, i32 54
  %100 = load ptr, ptr %99, align 8, !tbaa !84
  %101 = getelementptr inbounds nuw %struct.ssl_session_st, ptr %100, i32 0, i32 19
  %102 = load ptr, ptr %101, align 8, !tbaa !113
  %103 = getelementptr inbounds nuw %struct.ssl_cipher_st, ptr %102, i32 0, i32 3
  %104 = load i32, ptr %103, align 8, !tbaa !238
  %105 = zext i32 %104 to i64
  %106 = load ptr, ptr %4, align 8, !tbaa !3
  %107 = getelementptr inbounds nuw %struct.ssl_connection_st, ptr %106, i32 0, i32 54
  %108 = load ptr, ptr %107, align 8, !tbaa !84
  %109 = getelementptr inbounds nuw %struct.ssl_session_st, ptr %108, i32 0, i32 20
  store i64 %105, ptr %109, align 8, !tbaa !239
  br label %110

110:                                              ; preds = %97, %90
  %111 = load ptr, ptr %4, align 8, !tbaa !3
  %112 = getelementptr inbounds nuw %struct.ssl_connection_st, ptr %111, i32 0, i32 28
  %113 = load i32, ptr %112, align 8, !tbaa !80
  %114 = icmp ne i32 %113, 0
  br i1 %114, label %115, label %199

115:                                              ; preds = %110
  %116 = load ptr, ptr %4, align 8, !tbaa !3
  %117 = getelementptr inbounds nuw %struct.ssl_connection_st, ptr %116, i32 0, i32 54
  %118 = load ptr, ptr %117, align 8, !tbaa !84
  %119 = getelementptr inbounds nuw %struct.ssl_session_st, ptr %118, i32 0, i32 20
  %120 = load i64, ptr %119, align 8, !tbaa !239
  %121 = load ptr, ptr %7, align 8, !tbaa !183
  %122 = getelementptr inbounds nuw %struct.ssl_cipher_st, ptr %121, i32 0, i32 3
  %123 = load i32, ptr %122, align 8, !tbaa !238
  %124 = zext i32 %123 to i64
  %125 = icmp ne i64 %120, %124
  br i1 %125, label %126, label %199

126:                                              ; preds = %115
  %127 = load ptr, ptr %4, align 8, !tbaa !3
  %128 = getelementptr inbounds nuw %struct.ssl_connection_st, ptr %127, i32 0, i32 0
  %129 = getelementptr inbounds nuw %struct.ssl_st, ptr %128, i32 0, i32 3
  %130 = load ptr, ptr %129, align 8, !tbaa !12
  %131 = getelementptr inbounds nuw %struct.ssl_method_st, ptr %130, i32 0, i32 28
  %132 = load ptr, ptr %131, align 8, !tbaa !73
  %133 = getelementptr inbounds nuw %struct.ssl3_enc_method, ptr %132, i32 0, i32 10
  %134 = load i32, ptr %133, align 8, !tbaa !76
  %135 = and i32 %134, 8
  %136 = icmp ne i32 %135, 0
  br i1 %136, label %196, label %137

137:                                              ; preds = %126
  %138 = load ptr, ptr %4, align 8, !tbaa !3
  %139 = getelementptr inbounds nuw %struct.ssl_connection_st, ptr %138, i32 0, i32 0
  %140 = getelementptr inbounds nuw %struct.ssl_st, ptr %139, i32 0, i32 3
  %141 = load ptr, ptr %140, align 8, !tbaa !12
  %142 = getelementptr inbounds nuw %struct.ssl_method_st, ptr %141, i32 0, i32 0
  %143 = load i32, ptr %142, align 8, !tbaa !78
  %144 = icmp sge i32 %143, 772
  br i1 %144, label %145, label %196

145:                                              ; preds = %137
  %146 = load ptr, ptr %4, align 8, !tbaa !3
  %147 = getelementptr inbounds nuw %struct.ssl_connection_st, ptr %146, i32 0, i32 0
  %148 = getelementptr inbounds nuw %struct.ssl_st, ptr %147, i32 0, i32 3
  %149 = load ptr, ptr %148, align 8, !tbaa !12
  %150 = getelementptr inbounds nuw %struct.ssl_method_st, ptr %149, i32 0, i32 0
  %151 = load i32, ptr %150, align 8, !tbaa !78
  %152 = icmp ne i32 %151, 65536
  br i1 %152, label %153, label %196

153:                                              ; preds = %145
  call void @llvm.lifetime.start.p0(i64 8, ptr %11) #8
  %154 = load ptr, ptr %9, align 8, !tbaa !131
  %155 = load ptr, ptr %7, align 8, !tbaa !183
  %156 = getelementptr inbounds nuw %struct.ssl_cipher_st, ptr %155, i32 0, i32 13
  %157 = load i32, ptr %156, align 8, !tbaa !240
  %158 = call ptr @ssl_md(ptr noundef %154, i32 noundef %157)
  store ptr %158, ptr %11, align 8, !tbaa !201
  %159 = load ptr, ptr %4, align 8, !tbaa !3
  %160 = getelementptr inbounds nuw %struct.ssl_connection_st, ptr %159, i32 0, i32 54
  %161 = load ptr, ptr %160, align 8, !tbaa !84
  %162 = getelementptr inbounds nuw %struct.ssl_session_st, ptr %161, i32 0, i32 19
  %163 = load ptr, ptr %162, align 8, !tbaa !113
  %164 = icmp ne ptr %163, null
  %165 = zext i1 %164 to i32
  %166 = icmp ne i32 %165, 0
  %167 = xor i1 %166, true
  %168 = xor i1 %167, true
  %169 = zext i1 %168 to i32
  %170 = sext i32 %169 to i64
  %171 = call i64 @llvm.expect.i64(i64 %170, i64 1)
  %172 = icmp ne i64 %171, 0
  br i1 %172, label %175, label %173

173:                                              ; preds = %153
  call void @ERR_new()
  call void @ERR_set_debug(ptr noundef @.str, i32 noundef 1429, ptr noundef @__func__.set_client_ciphersuite)
  %174 = load ptr, ptr %4, align 8, !tbaa !3
  call void (ptr, i32, i32, ptr, ...) @ossl_statem_fatal(ptr noundef %174, i32 noundef 80, i32 noundef 786691, ptr noundef null)
  store i32 0, ptr %3, align 4
  store i32 1, ptr %10, align 4
  br label %193

175:                                              ; preds = %153
  %176 = load ptr, ptr %11, align 8, !tbaa !201
  %177 = icmp eq ptr %176, null
  br i1 %177, label %190, label %178

178:                                              ; preds = %175
  %179 = load ptr, ptr %11, align 8, !tbaa !201
  %180 = load ptr, ptr %9, align 8, !tbaa !131
  %181 = load ptr, ptr %4, align 8, !tbaa !3
  %182 = getelementptr inbounds nuw %struct.ssl_connection_st, ptr %181, i32 0, i32 54
  %183 = load ptr, ptr %182, align 8, !tbaa !84
  %184 = getelementptr inbounds nuw %struct.ssl_session_st, ptr %183, i32 0, i32 19
  %185 = load ptr, ptr %184, align 8, !tbaa !113
  %186 = getelementptr inbounds nuw %struct.ssl_cipher_st, ptr %185, i32 0, i32 13
  %187 = load i32, ptr %186, align 8, !tbaa !240
  %188 = call ptr @ssl_md(ptr noundef %180, i32 noundef %187)
  %189 = icmp ne ptr %179, %188
  br i1 %189, label %190, label %192

190:                                              ; preds = %178, %175
  call void @ERR_new()
  call void @ERR_set_debug(ptr noundef @.str, i32 noundef 1439, ptr noundef @__func__.set_client_ciphersuite)
  %191 = load ptr, ptr %4, align 8, !tbaa !3
  call void (ptr, i32, i32, ptr, ...) @ossl_statem_fatal(ptr noundef %191, i32 noundef 47, i32 noundef 218, ptr noundef null)
  store i32 0, ptr %3, align 4
  store i32 1, ptr %10, align 4
  br label %193

192:                                              ; preds = %178
  store i32 0, ptr %10, align 4
  br label %193

193:                                              ; preds = %192, %190, %173
  call void @llvm.lifetime.end.p0(i64 8, ptr %11) #8
  %194 = load i32, ptr %10, align 4
  switch i32 %194, label %205 [
    i32 0, label %195
  ]

195:                                              ; preds = %193
  br label %198

196:                                              ; preds = %145, %137, %126
  call void @ERR_new()
  call void @ERR_set_debug(ptr noundef @.str, i32 noundef 1448, ptr noundef @__func__.set_client_ciphersuite)
  %197 = load ptr, ptr %4, align 8, !tbaa !3
  call void (ptr, i32, i32, ptr, ...) @ossl_statem_fatal(ptr noundef %197, i32 noundef 47, i32 noundef 197, ptr noundef null)
  store i32 0, ptr %3, align 4
  store i32 1, ptr %10, align 4
  br label %205

198:                                              ; preds = %195
  br label %199

199:                                              ; preds = %198, %115, %110
  %200 = load ptr, ptr %7, align 8, !tbaa !183
  %201 = load ptr, ptr %4, align 8, !tbaa !3
  %202 = getelementptr inbounds nuw %struct.ssl_connection_st, ptr %201, i32 0, i32 24
  %203 = getelementptr inbounds nuw %struct.anon, ptr %202, i32 0, i32 14
  %204 = getelementptr inbounds nuw %struct.anon.0, ptr %203, i32 0, i32 6
  store ptr %200, ptr %204, align 8, !tbaa !88
  store i32 1, ptr %3, align 4
  store i32 1, ptr %10, align 4
  br label %205

205:                                              ; preds = %199, %196, %193, %88, %40, %28, %21
  call void @llvm.lifetime.end.p0(i64 8, ptr %9) #8
  call void @llvm.lifetime.end.p0(i64 4, ptr %8) #8
  call void @llvm.lifetime.end.p0(i64 8, ptr %7) #8
  call void @llvm.lifetime.end.p0(i64 8, ptr %6) #8
  %206 = load i32, ptr %3, align 4
  ret i32 %206
}