; Function Attrs: nounwind uwtable
define internal fastcc range(i32 0, 2) i32 @set_client_ciphersuite(ptr noundef %0, ptr noundef %1) unnamed_addr #0 {
  %3 = getelementptr inbounds nuw i8, ptr %0, i64 8
  %4 = load ptr, ptr %3, align 8, !tbaa !121
  %5 = tail call ptr @ssl_get_cipher_by_char(ptr noundef %0, ptr noundef %1, i32 noundef 0) #8
  %6 = icmp eq ptr %5, null
  br i1 %6, label %7, label %8

7:                                                ; preds = %2
  tail call void @ERR_new() #8
  tail call void @ERR_set_debug(ptr noundef nonnull @.str, i32 noundef 1390, ptr noundef nonnull @__func__.set_client_ciphersuite) #8
  tail call void (ptr, i32, i32, ptr, ...) @ossl_statem_fatal(ptr noundef nonnull %0, i32 noundef 47, i32 noundef 248, ptr noundef null) #8
  br label %.critedge

8:                                                ; preds = %2
  %9 = tail call i32 @ssl_cipher_disabled(ptr noundef nonnull %0, ptr noundef nonnull %5, i32 noundef 65539, i32 noundef 1) #8
  %.not = icmp eq i32 %9, 0
  br i1 %.not, label %11, label %10

10:                                               ; preds = %8
  tail call void @ERR_new() #8
  tail call void @ERR_set_debug(ptr noundef nonnull @.str, i32 noundef 1398, ptr noundef nonnull @__func__.set_client_ciphersuite) #8
  tail call void (ptr, i32, i32, ptr, ...) @ossl_statem_fatal(ptr noundef nonnull %0, i32 noundef 47, i32 noundef 261, ptr noundef null) #8
  br label %.critedge

11:                                               ; preds = %8
  %12 = tail call ptr @ssl_get_ciphers_by_id(ptr noundef nonnull %0) #8
  %13 = tail call i32 @OPENSSL_sk_find(ptr noundef %12, ptr noundef nonnull %5) #8
  %14 = icmp slt i32 %13, 0
  br i1 %14, label %15, label %16

15:                                               ; preds = %11
  tail call void @ERR_new() #8
  tail call void @ERR_set_debug(ptr noundef nonnull @.str, i32 noundef 1406, ptr noundef nonnull @__func__.set_client_ciphersuite) #8
  tail call void (ptr, i32, i32, ptr, ...) @ossl_statem_fatal(ptr noundef nonnull %0, i32 noundef 47, i32 noundef 261, ptr noundef null) #8
  br label %.critedge

16:                                               ; preds = %11
  %17 = getelementptr inbounds nuw i8, ptr %0, i64 24
  %18 = load ptr, ptr %17, align 8, !tbaa !3
  %19 = getelementptr inbounds nuw i8, ptr %18, i64 216
  %20 = load ptr, ptr %19, align 8, !tbaa !69
  %21 = getelementptr inbounds nuw i8, ptr %20, i64 80
  %22 = load i32, ptr %21, align 8, !tbaa !72
  %23 = and i32 %22, 8
  %.not50 = icmp eq i32 %23, 0
  br i1 %.not50, label %24, label %36

24:                                               ; preds = %16
  %25 = load i32, ptr %18, align 8, !tbaa !74
  %26 = icmp slt i32 %25, 772
  %.not51 = icmp eq i32 %25, 65536
  %or.cond = or i1 %26, %.not51
  br i1 %or.cond, label %36, label %27

27:                                               ; preds = %24
  %28 = getelementptr inbounds nuw i8, ptr %0, i64 768
  %29 = load ptr, ptr %28, align 8, !tbaa !86
  %.not52 = icmp eq ptr %29, null
  br i1 %.not52, label %36, label %30

30:                                               ; preds = %27
  %31 = getelementptr inbounds nuw i8, ptr %29, i64 24
  %32 = load i32, ptr %31, align 8, !tbaa !228
  %33 = getelementptr inbounds nuw i8, ptr %5, i64 24
  %34 = load i32, ptr %33, align 8, !tbaa !228
  %.not53 = icmp eq i32 %32, %34
  br i1 %.not53, label %36, label %35

35:                                               ; preds = %30
  tail call void @ERR_new() #8
  tail call void @ERR_set_debug(ptr noundef nonnull @.str, i32 noundef 1413, ptr noundef nonnull @__func__.set_client_ciphersuite) #8
  tail call void (ptr, i32, i32, ptr, ...) @ossl_statem_fatal(ptr noundef nonnull %0, i32 noundef 47, i32 noundef 261, ptr noundef null) #8
  br label %.critedge

36:                                               ; preds = %30, %27, %24, %16
  %37 = getelementptr inbounds nuw i8, ptr %0, i64 2304
  %38 = load ptr, ptr %37, align 8, !tbaa !82
  %39 = getelementptr inbounds nuw i8, ptr %38, i64 760
  %40 = load ptr, ptr %39, align 8, !tbaa !109
  %.not54 = icmp eq ptr %40, null
  br i1 %.not54, label %46, label %41

41:                                               ; preds = %36
  %42 = getelementptr inbounds nuw i8, ptr %40, i64 24
  %43 = load i32, ptr %42, align 8, !tbaa !228
  %44 = zext i32 %43 to i64
  %45 = getelementptr inbounds nuw i8, ptr %38, i64 768
  store i64 %44, ptr %45, align 8, !tbaa !229
  br label %46

46:                                               ; preds = %41, %36
  %47 = getelementptr inbounds nuw i8, ptr %0, i64 1288
  %48 = load i32, ptr %47, align 8, !tbaa !76
  %.not55 = icmp eq i32 %48, 0
  br i1 %.not55, label %75, label %49

49:                                               ; preds = %46
  %50 = getelementptr inbounds nuw i8, ptr %38, i64 768
  %51 = load i64, ptr %50, align 8, !tbaa !229
  %52 = getelementptr inbounds nuw i8, ptr %5, i64 24
  %53 = load i32, ptr %52, align 8, !tbaa !228
  %54 = zext i32 %53 to i64
  %.not56 = icmp eq i64 %51, %54
  br i1 %.not56, label %75, label %55

55:                                               ; preds = %49
  br i1 %.not50, label %56, label %74

56:                                               ; preds = %55
  %57 = load i32, ptr %18, align 8, !tbaa !74
  %58 = icmp slt i32 %57, 772
  %.not58 = icmp eq i32 %57, 65536
  %or.cond61 = or i1 %58, %.not58
  br i1 %or.cond61, label %74, label %59

59:                                               ; preds = %56
  %60 = getelementptr inbounds nuw i8, ptr %5, i64 64
  %61 = load i32, ptr %60, align 8, !tbaa !230
  %62 = tail call ptr @ssl_md(ptr noundef %4, i32 noundef %61) #8
  %63 = load ptr, ptr %37, align 8, !tbaa !82
  %64 = getelementptr inbounds nuw i8, ptr %63, i64 760
  %65 = load ptr, ptr %64, align 8, !tbaa !109
  %.not59 = icmp eq ptr %65, null
  br i1 %.not59, label %66, label %67, !prof !96

66:                                               ; preds = %59
  tail call void @ERR_new() #8
  tail call void @ERR_set_debug(ptr noundef nonnull @.str, i32 noundef 1429, ptr noundef nonnull @__func__.set_client_ciphersuite) #8
  tail call void (ptr, i32, i32, ptr, ...) @ossl_statem_fatal(ptr noundef nonnull %0, i32 noundef 80, i32 noundef 786691, ptr noundef null) #8
  br label %.critedge

67:                                               ; preds = %59
  %68 = icmp eq ptr %62, null
  br i1 %68, label %73, label %69

69:                                               ; preds = %67
  %70 = getelementptr inbounds nuw i8, ptr %65, i64 64
  %71 = load i32, ptr %70, align 8, !tbaa !230
  %72 = tail call ptr @ssl_md(ptr noundef %4, i32 noundef %71) #8
  %.not60 = icmp eq ptr %62, %72
  br i1 %.not60, label %75, label %73

73:                                               ; preds = %69, %67
  tail call void @ERR_new() #8
  tail call void @ERR_set_debug(ptr noundef nonnull @.str, i32 noundef 1439, ptr noundef nonnull @__func__.set_client_ciphersuite) #8
  tail call void (ptr, i32, i32, ptr, ...) @ossl_statem_fatal(ptr noundef nonnull %0, i32 noundef 47, i32 noundef 218, ptr noundef null) #8
  br label %.critedge

74:                                               ; preds = %56, %55
  tail call void @ERR_new() #8
  tail call void @ERR_set_debug(ptr noundef nonnull @.str, i32 noundef 1448, ptr noundef nonnull @__func__.set_client_ciphersuite) #8
  tail call void (ptr, i32, i32, ptr, ...) @ossl_statem_fatal(ptr noundef nonnull %0, i32 noundef 47, i32 noundef 197, ptr noundef null) #8
  br label %.critedge

75:                                               ; preds = %69, %49, %46
  %76 = getelementptr inbounds nuw i8, ptr %0, i64 768
  store ptr %5, ptr %76, align 8, !tbaa !86
  br label %.critedge

.critedge:                                        ; preds = %73, %66, %75, %74, %35, %15, %10, %7
  %.0 = phi i32 [ 0, %7 ], [ 0, %10 ], [ 0, %15 ], [ 0, %74 ], [ 1, %75 ], [ 0, %35 ], [ 0, %66 ], [ 0, %73 ]
  ret i32 %.0
}